; Function Attrs: mustprogress nofree norecurse nosync nounwind willreturn memory(readwrite, inaccessiblemem: none) uwtable
define dso_local range(i32 -30, 1) i32 @onig_set_callout_data(ptr noundef readnone captures(none) %0, ptr noundef readonly captures(none) %1, i32 noundef %2, i32 noundef %3, i32 noundef %4, ptr noundef readonly captures(none) %5) local_unnamed_addr #13 {
  %7 = icmp slt i32 %2, 1
  br i1 %7, label %20, label %8

8:                                                ; preds = %6
  %9 = getelementptr inbounds nuw i8, ptr %1, i64 56
  %10 = load ptr, ptr %9, align 8, !tbaa !41
  %11 = zext nneg i32 %2 to i64
  %12 = getelementptr %struct.CalloutData, ptr %10, i64 %11
  %13 = getelementptr i8, ptr %12, i64 -128
  %14 = getelementptr i8, ptr %12, i64 -120
  %15 = sext i32 %3 to i64
  %16 = getelementptr inbounds [5 x %struct.anon], ptr %14, i64 0, i64 %15
  store i32 %4, ptr %16, align 8, !tbaa !53
  %17 = getelementptr inbounds nuw i8, ptr %16, i64 8
  tail call void @llvm.memcpy.p0.p0.i64(ptr noundef nonnull align 8 dereferenceable(16) %17, ptr noundef nonnull align 8 dereferenceable(16) %5, i64 16, i1 false), !tbaa.struct !55
  %18 = getelementptr inbounds nuw i8, ptr %1, i64 48
  %19 = load i32, ptr %18, align 8, !tbaa !40
  store i32 %19, ptr %13, align 8, !tbaa !53
  br label %20

20:                                               ; preds = %6, %8
  %.0 = phi i32 [ 0, %8 ], [ -30, %6 ]
  ret i32 %.0
}